target datalayout = "e-m:e-p270:32:32-p271:32:32-p272:64:64-i64:64-i128:128-f80:128-n8:16:32:64-S128"
target triple = "x86_64-pc-linux-gnu"

@H5S_init_g = global i8 0, align 1
@H5_libterm_g = external global i8, align 1
@.str.3 = private unnamed_addr constant [97 x i8] c"generated/home/dtcxzyw/WorkSpace/Projects/compilers/llvm-opt-benchmark/bench/hdf5/hdf5/src/H5S.c\00", align 1
@__func__.H5S_init = private unnamed_addr constant [9 x i8] c"H5S_init\00", align 1
@H5E_FUNC_g = external global i64, align 8
@H5E_CANTINIT_g = external global i64, align 8
@.str.4 = private unnamed_addr constant [32 x i8] c"interface initialization failed\00", align 1

; Function Attrs: nounwind uwtable
define i32 @H5S_init() #0 {
  %1 = alloca i32, align 4
  %2 = alloca i8, align 1
  call void @llvm.lifetime.start.p0(i64 4, ptr %1) #7
  store i32 0, ptr %1, align 4, !tbaa !3
  call void @llvm.lifetime.start.p0(i64 1, ptr %2) #7
  store i8 0, ptr %2, align 1, !tbaa !7
  %3 = load i8, ptr @H5S_init_g, align 1, !tbaa !7, !range !9, !noundef !10
  %4 = trunc i8 %3 to i1
  br i1 %4, label %9, label %5

5:                                                ; preds = %0
  %6 = load i8, ptr @H5_libterm_g, align 1, !tbaa !7, !range !9, !noundef !10
  %7 = trunc i8 %6 to i1
  %8 = xor i1 %7, true
  br label %9

9:                                                ; preds = %5, %0
  %10 = phi i1 [ false, %0 ], [ %8, %5 ]
  %11 = xor i1 %10, true
  %12 = xor i1 %11, true
  %13 = zext i1 %12 to i32
  %14 = sext i32 %13 to i64
  %15 = call i64 @llvm.expect.i64(i64 %14, i64 0)
  %16 = icmp ne i64 %15, 0
  br i1 %16, label %17, label %40

17:                                               ; preds = %9
  store i8 1, ptr @H5S_init_g, align 1, !tbaa !7
  %18 = call i32 @H5S__init_package()
  %19 = icmp slt i32 %18, 0
  br i1 %19, label %20, label %39

20:                                               ; preds = %17
  store i8 0, ptr @H5S_init_g, align 1, !tbaa !7
  br label %21

21:                                               ; preds = %20
  br label %22

22:                                               ; preds = %21
  br label %23

23:                                               ; preds = %22
  %24 = load i64, ptr @H5E_FUNC_g, align 8, !tbaa !11
  %25 = load i64, ptr @H5E_CANTINIT_g, align 8, !tbaa !11
  %26 = call i32 (ptr, ptr, i32, i64, i64, ptr, ...) @H5E_printf_stack(ptr noundef @.str.3, ptr noundef @__func__.H5S_init, i32 noundef 117, i64 noundef %24, i64 noundef %25, ptr noundef @.str.4)
  br label %27

27:                                               ; preds = %23
  br label %28

28:                                               ; preds = %27
  store i8 1, ptr %2, align 1, !tbaa !7
  %29 = load i8, ptr %2, align 1, !tbaa !7, !range !9, !noundef !10
  %30 = trunc i8 %29 to i1
  %31 = zext i1 %30 to i8
  store i8 %31, ptr %2, align 1, !tbaa !7
  br label %32

32:                                               ; preds = %28
  br label %33

33:                                               ; preds = %32
  br label %34

34:                                               ; preds = %33
  store i32 -1, ptr %1, align 4, !tbaa !3
  br label %56

35:                                               ; No predecessors!
  br label %36

36:                                               ; preds = %35
  br label %37

37:                                               ; preds = %36
  br label %38

38:                                               ; preds = %37
  br label %39

39:                                               ; preds = %38, %17
  br label %40

40:                                               ; preds = %39, %9
  %41 = load i8, ptr @H5S_init_g, align 1, !tbaa !7, !range !9, !noundef !10
  %42 = trunc i8 %41 to i1
  br i1 %42, label %47, label %43

43:                                               ; preds = %40
  %44 = load i8, ptr @H5_libterm_g, align 1, !tbaa !7, !range !9, !noundef !10
  %45 = trunc i8 %44 to i1
  %46 = xor i1 %45, true
  br label %47

47:                                               ; preds = %43, %40
  %48 = phi i1 [ true, %40 ], [ %46, %43 ]
  %49 = xor i1 %48, true
  %50 = xor i1 %49, true
  %51 = zext i1 %50 to i32
  %52 = sext i32 %51 to i64
  %53 = call i64 @llvm.expect.i64(i64 %52, i64 1)
  %54 = icmp ne i64 %53, 0
  br i1 %54, label %55, label %57

55:                                               ; preds = %47
  br label %56

56:                                               ; preds = %55, %34
  br label %57

57:                                               ; preds = %56, %47
  %58 = load i32, ptr %1, align 4, !tbaa !3
  call void @llvm.lifetime.end.p0(i64 1, ptr %2) #7
  call void @llvm.lifetime.end.p0(i64 4, ptr %1) #7
  ret i32 %58
}